target datalayout = "e-m:e-p270:32:32-p271:32:32-p272:64:64-i64:64-i128:128-f80:128-n8:16:32:64-S128"
target triple = "x86_64-pc-linux-gnu"

%struct.AVIOInterruptCB = type { ptr, ptr }
%struct.URLContext = type { ptr, ptr, ptr, ptr, i32, i32, i32, i32, %struct.AVIOInterruptCB, i64, ptr, ptr, i32 }
%struct.AsyncContext = type { ptr, ptr, i32, i64, i32, i32, i64, i32, i32, i32, i64, i64, %struct.RingBuffer, %union.pthread_cond_t, %union.pthread_cond_t, %union.pthread_mutex_t, i64, i32, %struct.AVIOInterruptCB }
%struct.RingBuffer = type { ptr, i32, i32 }
%union.pthread_cond_t = type { %struct.__pthread_cond_s }
%struct.__pthread_cond_s = type { %union.__atomic_wide_counter, %union.__atomic_wide_counter, [2 x i32], [2 x i32], i32, i32, [2 x i32] }
%union.__atomic_wide_counter = type { i64 }
%union.pthread_mutex_t = type { %struct.__pthread_mutex_s }
%struct.__pthread_mutex_s = type { i32, i32, i32, i32, i32, i16, i16, %struct.__pthread_internal_list }
%struct.__pthread_internal_list = type { ptr, ptr }

@.str.9 = private unnamed_addr constant [20 x i8] c"pthread_join(): %s\0A\00", align 1

; Function Attrs: nounwind uwtable
define internal void @ring_destroy(ptr noundef %0) #0 {
  %2 = alloca ptr, align 8
  store ptr %0, ptr %2, align 8, !tbaa !37
  %3 = load ptr, ptr %2, align 8, !tbaa !37
  %4 = getelementptr inbounds nuw %struct.RingBuffer, ptr %3, i32 0, i32 0
  call void @av_fifo_freep2(ptr noundef %4)
  ret void
}

; Function Attrs: inlinehint nounwind uwtable
define internal ptr @av_make_error_string(ptr noundef %0, i64 noundef %1, i32 noundef %2) #4 {
  %4 = alloca ptr, align 8
  %5 = alloca i64, align 8
  %6 = alloca i32, align 4
  store ptr %0, ptr %4, align 8, !tbaa !9
  store i64 %1, ptr %5, align 8, !tbaa !36
  store i32 %2, ptr %6, align 4, !tbaa !11
  %7 = load i32, ptr %6, align 4, !tbaa !11
  %8 = load ptr, ptr %4, align 8, !tbaa !9
  %9 = load i64, ptr %5, align 8, !tbaa !36
  %10 = call i32 @av_strerror(i32 noundef %7, ptr noundef %8, i64 noundef %9)
  %11 = load ptr, ptr %4, align 8, !tbaa !9
  ret ptr %11
}

; Function Attrs: nounwind uwtable
define internal i32 @async_close(ptr noundef %0) #0 {
  %2 = alloca ptr, align 8
  %3 = alloca ptr, align 8
  %4 = alloca i32, align 4
  %5 = alloca [64 x i8], align 1
  store ptr %0, ptr %2, align 8, !tbaa !4
  call void @llvm.lifetime.start.p0(i64 8, ptr %3) #7
  %6 = load ptr, ptr %2, align 8, !tbaa !4
  %7 = getelementptr inbounds nuw %struct.URLContext, ptr %6, i32 0, i32 2
  %8 = load ptr, ptr %7, align 8, !tbaa !16
  store ptr %8, ptr %3, align 8, !tbaa !22
  call void @llvm.lifetime.start.p0(i64 4, ptr %4) #7
  %9 = load ptr, ptr %3, align 8, !tbaa !22
  %10 = getelementptr inbounds nuw %struct.AsyncContext, ptr %9, i32 0, i32 15
  %11 = call i32 @pthread_mutex_lock(ptr noundef %10) #7
  %12 = load ptr, ptr %3, align 8, !tbaa !22
  %13 = getelementptr inbounds nuw %struct.AsyncContext, ptr %12, i32 0, i32 17
  store i32 1, ptr %13, align 8, !tbaa !45
  %14 = load ptr, ptr %3, align 8, !tbaa !22
  %15 = getelementptr inbounds nuw %struct.AsyncContext, ptr %14, i32 0, i32 14
  %16 = call i32 @pthread_cond_signal(ptr noundef %15) #7
  %17 = load ptr, ptr %3, align 8, !tbaa !22
  %18 = getelementptr inbounds nuw %struct.AsyncContext, ptr %17, i32 0, i32 15
  %19 = call i32 @pthread_mutex_unlock(ptr noundef %18) #7
  %20 = load ptr, ptr %3, align 8, !tbaa !22
  %21 = getelementptr inbounds nuw %struct.AsyncContext, ptr %20, i32 0, i32 16
  %22 = load i64, ptr %21, align 8, !tbaa !46
  %23 = call i32 @pthread_join(i64 noundef %22, ptr noundef null)
  store i32 %23, ptr %4, align 4, !tbaa !11
  %24 = load i32, ptr %4, align 4, !tbaa !11
  %25 = icmp ne i32 %24, 0
  br i1 %25, label %26, label %31

26:                                               ; preds = %1
  %27 = load ptr, ptr %2, align 8, !tbaa !4
  call void @llvm.memset.p0.i64(ptr align 1 %5, i8 0, i64 64, i1 false)
  %28 = getelementptr inbounds [64 x i8], ptr %5, i64 0, i64 0
  %29 = load i32, ptr %4, align 4, !tbaa !11
  %30 = call ptr @av_make_error_string(ptr noundef %28, i64 noundef 64, i32 noundef %29)
  call void (ptr, i32, ptr, ...) @av_log(ptr noundef %27, i32 noundef 16, ptr noundef @.str.9, ptr noundef %30)
  br label %31

31:                                               ; preds = %26, %1
  %32 = load ptr, ptr %3, align 8, !tbaa !22
  %33 = getelementptr inbounds nuw %struct.AsyncContext, ptr %32, i32 0, i32 14
  %34 = call i32 @pthread_cond_destroy(ptr noundef %33) #7
  %35 = load ptr, ptr %3, align 8, !tbaa !22
  %36 = getelementptr inbounds nuw %struct.AsyncContext, ptr %35, i32 0, i32 13
  %37 = call i32 @pthread_cond_destroy(ptr noundef %36) #7
  %38 = load ptr, ptr %3, align 8, !tbaa !22
  %39 = getelementptr inbounds nuw %struct.AsyncContext, ptr %38, i32 0, i32 15
  %40 = call i32 @pthread_mutex_destroy(ptr noundef %39) #7
  %41 = load ptr, ptr %3, align 8, !tbaa !22
  %42 = getelementptr inbounds nuw %struct.AsyncContext, ptr %41, i32 0, i32 1
  %43 = call i32 @ffurl_closep(ptr noundef %42)
  %44 = load ptr, ptr %3, align 8, !tbaa !22
  %45 = getelementptr inbounds nuw %struct.AsyncContext, ptr %44, i32 0, i32 12
  call void @ring_destroy(ptr noundef %45)
  call void @llvm.lifetime.end.p0(i64 4, ptr %4) #7
  call void @llvm.lifetime.end.p0(i64 8, ptr %3) #7
  ret i32 0
}