; Function Attrs: nounwind uwtable
define internal noundef i32 @async_close(ptr noundef %0) #0 {
  %2 = alloca [64 x i8], align 1
  %3 = getelementptr inbounds nuw i8, ptr %0, i64 16
  %4 = load ptr, ptr %3, align 8, !tbaa !9
  %5 = getelementptr inbounds nuw i8, ptr %4, i64 192
  %6 = tail call i32 @pthread_mutex_lock(ptr noundef nonnull %5) #7
  %7 = getelementptr inbounds nuw i8, ptr %4, i64 240
  store i32 1, ptr %7, align 8, !tbaa !35
  %8 = getelementptr inbounds nuw i8, ptr %4, i64 144
  %9 = tail call i32 @pthread_cond_signal(ptr noundef nonnull %8) #7
  %10 = tail call i32 @pthread_mutex_unlock(ptr noundef nonnull %5) #7
  %11 = getelementptr inbounds nuw i8, ptr %4, i64 232
  %12 = load i64, ptr %11, align 8, !tbaa !38
  %13 = tail call i32 @pthread_join(i64 noundef %12, ptr noundef null) #7
  %.not = icmp eq i32 %13, 0
  br i1 %.not, label %16, label %14

14:                                               ; preds = %1
  call void @llvm.memset.p0.i64(ptr noundef nonnull align 1 dereferenceable(64) %2, i8 0, i64 64, i1 false)
  %15 = call i32 @av_strerror(i32 noundef %13, ptr noundef nonnull %2, i64 noundef 64) #7
  call void (ptr, i32, ptr, ...) @av_log(ptr noundef nonnull %0, i32 noundef 16, ptr noundef nonnull @.str.9, ptr noundef nonnull %2) #7
  br label %16

16:                                               ; preds = %14, %1
  %17 = call i32 @pthread_cond_destroy(ptr noundef nonnull %8) #7
  %18 = getelementptr inbounds nuw i8, ptr %4, i64 96
  %19 = call i32 @pthread_cond_destroy(ptr noundef nonnull %18) #7
  %20 = call i32 @pthread_mutex_destroy(ptr noundef nonnull %5) #7
  %21 = getelementptr inbounds nuw i8, ptr %4, i64 8
  %22 = call i32 @ffurl_closep(ptr noundef nonnull %21) #7
  %23 = getelementptr inbounds nuw i8, ptr %4, i64 80
  call void @av_fifo_freep2(ptr noundef nonnull %23) #7
  ret i32 0
}